target datalayout = "e-m:e-p270:32:32-p271:32:32-p272:64:64-i64:64-i128:128-f80:128-n8:16:32:64-S128"
target triple = "x86_64-pc-linux-gnu"

%struct.ForEachState = type { ptr, i32 }
%union.ListCell = type { ptr }
%struct.List = type { i32, i32, i32, ptr, [0 x %union.ListCell] }
%struct.RangeTblRef = type { i32, i32 }
%struct.FromExpr = type { i32, ptr, ptr }
%struct.Node = type { i32 }
%struct.JoinExpr = type { i32, i32, i8, ptr, ptr, ptr, ptr, ptr, ptr, i32 }

@.str.2 = private unnamed_addr constant [15 x i8] c"prepjointree.c\00", align 1
@.str.5 = private unnamed_addr constant [27 x i8] c"unrecognized node type: %d\00", align 1
@.str.7 = private unnamed_addr constant [27 x i8] c"unrecognized join type: %d\00", align 1
@__func__.pull_up_sublinks_jointree_recurse = private unnamed_addr constant [34 x i8] c"pull_up_sublinks_jointree_recurse\00", align 1

; Function Attrs: nounwind uwtable
define internal ptr @pull_up_sublinks_jointree_recurse(ptr noundef %0, ptr noundef %1, ptr noundef %2) #0 {
  %4 = alloca ptr, align 8
  %5 = alloca ptr, align 8
  %6 = alloca ptr, align 8
  %7 = alloca i32, align 4
  %8 = alloca ptr, align 8
  %9 = alloca ptr, align 8
  %10 = alloca ptr, align 8
  %11 = alloca ptr, align 8
  %12 = alloca ptr, align 8
  %13 = alloca ptr, align 8
  %14 = alloca %struct.ForEachState, align 8
  %15 = alloca ptr, align 8
  %16 = alloca ptr, align 8
  %17 = alloca ptr, align 8
  %18 = alloca ptr, align 8
  %19 = alloca ptr, align 8
  %20 = alloca ptr, align 8
  store ptr %0, ptr %4, align 8
  store ptr %1, ptr %5, align 8
  store ptr %2, ptr %6, align 8
  call void @check_stack_depth()
  %21 = load ptr, ptr %5, align 8
  %22 = icmp eq ptr %21, null
  br i1 %22, label %23, label %25

23:                                               ; preds = %3
  %24 = load ptr, ptr %6, align 8
  store ptr null, ptr %24, align 8
  br label %215

25:                                               ; preds = %3
  %26 = load ptr, ptr %5, align 8
  %27 = getelementptr inbounds nuw %struct.Node, ptr %26, i32 0, i32 0
  %28 = load i32, ptr %27, align 4
  %29 = icmp eq i32 %28, 63
  br i1 %29, label %30, label %37

30:                                               ; preds = %25
  call void @llvm.lifetime.start.p0(i64 4, ptr %7) #8
  %31 = load ptr, ptr %5, align 8
  %32 = getelementptr inbounds nuw %struct.RangeTblRef, ptr %31, i32 0, i32 1
  %33 = load i32, ptr %32, align 4
  store i32 %33, ptr %7, align 4
  %34 = load i32, ptr %7, align 4
  %35 = call ptr @bms_make_singleton(i32 noundef %34)
  %36 = load ptr, ptr %6, align 8
  store ptr %35, ptr %36, align 8
  call void @llvm.lifetime.end.p0(i64 4, ptr %7) #8
  br label %214

37:                                               ; preds = %25
  %38 = load ptr, ptr %5, align 8
  %39 = getelementptr inbounds nuw %struct.Node, ptr %38, i32 0, i32 0
  %40 = load i32, ptr %39, align 4
  %41 = icmp eq i32 %40, 65
  br i1 %41, label %42, label %106

42:                                               ; preds = %37
  call void @llvm.lifetime.start.p0(i64 8, ptr %8) #8
  %43 = load ptr, ptr %5, align 8
  store ptr %43, ptr %8, align 8
  call void @llvm.lifetime.start.p0(i64 8, ptr %9) #8
  store ptr null, ptr %9, align 8
  call void @llvm.lifetime.start.p0(i64 8, ptr %10) #8
  store ptr null, ptr %10, align 8
  call void @llvm.lifetime.start.p0(i64 8, ptr %11) #8
  call void @llvm.lifetime.start.p0(i64 8, ptr %12) #8
  call void @llvm.lifetime.start.p0(i64 8, ptr %13) #8
  call void @llvm.lifetime.start.p0(i64 16, ptr %14) #8
  %44 = getelementptr inbounds nuw %struct.ForEachState, ptr %14, i32 0, i32 0
  %45 = load ptr, ptr %8, align 8
  %46 = getelementptr inbounds nuw %struct.FromExpr, ptr %45, i32 0, i32 1
  %47 = load ptr, ptr %46, align 8
  store ptr %47, ptr %44, align 8
  %48 = getelementptr inbounds nuw %struct.ForEachState, ptr %14, i32 0, i32 1
  store i32 0, ptr %48, align 8
  %49 = getelementptr i8, ptr %14, i64 12
  call void @llvm.memset.p0.i64(ptr align 4 %49, i8 0, i64 4, i1 false)
  br label %50

50:                                               ; preds = %87, %42
  %51 = getelementptr inbounds nuw %struct.ForEachState, ptr %14, i32 0, i32 0
  %52 = load ptr, ptr %51, align 8
  %53 = icmp ne ptr %52, null
  br i1 %53, label %54, label %71

54:                                               ; preds = %50
  %55 = getelementptr inbounds nuw %struct.ForEachState, ptr %14, i32 0, i32 1
  %56 = load i32, ptr %55, align 8
  %57 = getelementptr inbounds nuw %struct.ForEachState, ptr %14, i32 0, i32 0
  %58 = load ptr, ptr %57, align 8
  %59 = getelementptr inbounds nuw %struct.List, ptr %58, i32 0, i32 1
  %60 = load i32, ptr %59, align 4
  %61 = icmp slt i32 %56, %60
  br i1 %61, label %62, label %71

62:                                               ; preds = %54
  %63 = getelementptr inbounds nuw %struct.ForEachState, ptr %14, i32 0, i32 0
  %64 = load ptr, ptr %63, align 8
  %65 = getelementptr inbounds nuw %struct.List, ptr %64, i32 0, i32 3
  %66 = load ptr, ptr %65, align 8
  %67 = getelementptr inbounds nuw %struct.ForEachState, ptr %14, i32 0, i32 1
  %68 = load i32, ptr %67, align 8
  %69 = sext i32 %68 to i64
  %70 = getelementptr inbounds %union.ListCell, ptr %66, i64 %69
  store ptr %70, ptr %13, align 8
  br label %72

71:                                               ; preds = %54, %50
  store ptr null, ptr %13, align 8
  br label %72

72:                                               ; preds = %71, %62
  %73 = phi i32 [ 1, %62 ], [ 0, %71 ]
  %74 = icmp ne i32 %73, 0
  br i1 %74, label %76, label %75

75:                                               ; preds = %72
  call void @llvm.lifetime.end.p0(i64 16, ptr %14) #8
  br label %91

76:                                               ; preds = %72
  call void @llvm.lifetime.start.p0(i64 8, ptr %15) #8
  call void @llvm.lifetime.start.p0(i64 8, ptr %16) #8
  %77 = load ptr, ptr %4, align 8
  %78 = load ptr, ptr %13, align 8
  %79 = load ptr, ptr %78, align 8
  %80 = call ptr @pull_up_sublinks_jointree_recurse(ptr noundef %77, ptr noundef %79, ptr noundef %16)
  store ptr %80, ptr %15, align 8
  %81 = load ptr, ptr %9, align 8
  %82 = load ptr, ptr %15, align 8
  %83 = call ptr @lappend(ptr noundef %81, ptr noundef %82)
  store ptr %83, ptr %9, align 8
  %84 = load ptr, ptr %10, align 8
  %85 = load ptr, ptr %16, align 8
  %86 = call ptr @bms_join(ptr noundef %84, ptr noundef %85)
  store ptr %86, ptr %10, align 8
  call void @llvm.lifetime.end.p0(i64 8, ptr %16) #8
  call void @llvm.lifetime.end.p0(i64 8, ptr %15) #8
  br label %87

87:                                               ; preds = %76
  %88 = getelementptr inbounds nuw %struct.ForEachState, ptr %14, i32 0, i32 1
  %89 = load i32, ptr %88, align 8
  %90 = add i32 %89, 1
  store i32 %90, ptr %88, align 8
  br label %50, !llvm.loop !11

91:                                               ; preds = %75
  %92 = load ptr, ptr %9, align 8
  %93 = call ptr @makeFromExpr(ptr noundef %92, ptr noundef null)
  store ptr %93, ptr %11, align 8
  %94 = load ptr, ptr %11, align 8
  store ptr %94, ptr %12, align 8
  %95 = load ptr, ptr %4, align 8
  %96 = load ptr, ptr %8, align 8
  %97 = getelementptr inbounds nuw %struct.FromExpr, ptr %96, i32 0, i32 2
  %98 = load ptr, ptr %97, align 8
  %99 = load ptr, ptr %10, align 8
  %100 = call ptr @pull_up_sublinks_qual_recurse(ptr noundef %95, ptr noundef %98, ptr noundef %12, ptr noundef %99, ptr noundef null, ptr noundef null)
  %101 = load ptr, ptr %11, align 8
  %102 = getelementptr inbounds nuw %struct.FromExpr, ptr %101, i32 0, i32 2
  store ptr %100, ptr %102, align 8
  %103 = load ptr, ptr %10, align 8
  %104 = load ptr, ptr %6, align 8
  store ptr %103, ptr %104, align 8
  %105 = load ptr, ptr %12, align 8
  store ptr %105, ptr %5, align 8
  call void @llvm.lifetime.end.p0(i64 8, ptr %13) #8
  call void @llvm.lifetime.end.p0(i64 8, ptr %12) #8
  call void @llvm.lifetime.end.p0(i64 8, ptr %11) #8
  call void @llvm.lifetime.end.p0(i64 8, ptr %10) #8
  call void @llvm.lifetime.end.p0(i64 8, ptr %9) #8
  call void @llvm.lifetime.end.p0(i64 8, ptr %8) #8
  br label %213

106:                                              ; preds = %37
  %107 = load ptr, ptr %5, align 8
  %108 = getelementptr inbounds nuw %struct.Node, ptr %107, i32 0, i32 0
  %109 = load i32, ptr %108, align 4
  %110 = icmp eq i32 %109, 64
  br i1 %110, label %111, label %199

111:                                              ; preds = %106
  call void @llvm.lifetime.start.p0(i64 8, ptr %17) #8
  call void @llvm.lifetime.start.p0(i64 8, ptr %18) #8
  call void @llvm.lifetime.start.p0(i64 8, ptr %19) #8
  call void @llvm.lifetime.start.p0(i64 8, ptr %20) #8
  %112 = call ptr @palloc(i64 noundef 72)
  store ptr %112, ptr %17, align 8
  %113 = load ptr, ptr %17, align 8
  %114 = load ptr, ptr %5, align 8
  call void @llvm.memcpy.p0.p0.i64(ptr align 8 %113, ptr align 4 %114, i64 72, i1 false)
  %115 = load ptr, ptr %17, align 8
  store ptr %115, ptr %20, align 8
  %116 = load ptr, ptr %4, align 8
  %117 = load ptr, ptr %17, align 8
  %118 = getelementptr inbounds nuw %struct.JoinExpr, ptr %117, i32 0, i32 3
  %119 = load ptr, ptr %118, align 8
  %120 = call ptr @pull_up_sublinks_jointree_recurse(ptr noundef %116, ptr noundef %119, ptr noundef %18)
  %121 = load ptr, ptr %17, align 8
  %122 = getelementptr inbounds nuw %struct.JoinExpr, ptr %121, i32 0, i32 3
  store ptr %120, ptr %122, align 8
  %123 = load ptr, ptr %4, align 8
  %124 = load ptr, ptr %17, align 8
  %125 = getelementptr inbounds nuw %struct.JoinExpr, ptr %124, i32 0, i32 4
  %126 = load ptr, ptr %125, align 8
  %127 = call ptr @pull_up_sublinks_jointree_recurse(ptr noundef %123, ptr noundef %126, ptr noundef %19)
  %128 = load ptr, ptr %17, align 8
  %129 = getelementptr inbounds nuw %struct.JoinExpr, ptr %128, i32 0, i32 4
  store ptr %127, ptr %129, align 8
  %130 = load ptr, ptr %17, align 8
  %131 = getelementptr inbounds nuw %struct.JoinExpr, ptr %130, i32 0, i32 1
  %132 = load i32, ptr %131, align 4
  switch i32 %132, label %166 [
    i32 0, label %133
    i32 1, label %144
    i32 2, label %180
    i32 3, label %155
  ]

133:                                              ; preds = %111
  %134 = load ptr, ptr %4, align 8
  %135 = load ptr, ptr %17, align 8
  %136 = getelementptr inbounds nuw %struct.JoinExpr, ptr %135, i32 0, i32 7
  %137 = load ptr, ptr %136, align 8
  %138 = load ptr, ptr %18, align 8
  %139 = load ptr, ptr %19, align 8
  %140 = call ptr @bms_union(ptr noundef %138, ptr noundef %139)
  %141 = call ptr @pull_up_sublinks_qual_recurse(ptr noundef %134, ptr noundef %137, ptr noundef %20, ptr noundef %140, ptr noundef null, ptr noundef null)
  %142 = load ptr, ptr %17, align 8
  %143 = getelementptr inbounds nuw %struct.JoinExpr, ptr %142, i32 0, i32 7
  store ptr %141, ptr %143, align 8
  br label %180

144:                                              ; preds = %111
  %145 = load ptr, ptr %4, align 8
  %146 = load ptr, ptr %17, align 8
  %147 = getelementptr inbounds nuw %struct.JoinExpr, ptr %146, i32 0, i32 7
  %148 = load ptr, ptr %147, align 8
  %149 = load ptr, ptr %17, align 8
  %150 = getelementptr inbounds nuw %struct.JoinExpr, ptr %149, i32 0, i32 4
  %151 = load ptr, ptr %19, align 8
  %152 = call ptr @pull_up_sublinks_qual_recurse(ptr noundef %145, ptr noundef %148, ptr noundef %150, ptr noundef %151, ptr noundef null, ptr noundef null)
  %153 = load ptr, ptr %17, align 8
  %154 = getelementptr inbounds nuw %struct.JoinExpr, ptr %153, i32 0, i32 7
  store ptr %152, ptr %154, align 8
  br label %180

155:                                              ; preds = %111
  %156 = load ptr, ptr %4, align 8
  %157 = load ptr, ptr %17, align 8
  %158 = getelementptr inbounds nuw %struct.JoinExpr, ptr %157, i32 0, i32 7
  %159 = load ptr, ptr %158, align 8
  %160 = load ptr, ptr %17, align 8
  %161 = getelementptr inbounds nuw %struct.JoinExpr, ptr %160, i32 0, i32 3
  %162 = load ptr, ptr %18, align 8
  %163 = call ptr @pull_up_sublinks_qual_recurse(ptr noundef %156, ptr noundef %159, ptr noundef %161, ptr noundef %162, ptr noundef null, ptr noundef null)
  %164 = load ptr, ptr %17, align 8
  %165 = getelementptr inbounds nuw %struct.JoinExpr, ptr %164, i32 0, i32 7
  store ptr %163, ptr %165, align 8
  br label %180

166:                                              ; preds = %111
  br label %167

167:                                              ; preds = %166
  br i1 true, label %168, label %170

168:                                              ; preds = %167
  %169 = call zeroext i1 @errstart_cold(i32 noundef 21, ptr noundef null) #9
  br i1 %169, label %172, label %177

170:                                              ; preds = %167
  %171 = call zeroext i1 @errstart(i32 noundef 21, ptr noundef null)
  br i1 %171, label %172, label %177

172:                                              ; preds = %170, %168
  %173 = load ptr, ptr %17, align 8
  %174 = getelementptr inbounds nuw %struct.JoinExpr, ptr %173, i32 0, i32 1
  %175 = load i32, ptr %174, align 4
  %176 = call i32 (ptr, ...) @errmsg_internal(ptr noundef @.str.7, i32 noundef %175)
  call void @errfinish(ptr noundef @.str.2, i32 noundef 598, ptr noundef @__func__.pull_up_sublinks_jointree_recurse)
  br label %177

177:                                              ; preds = %172, %170, %168
  unreachable

178:                                              ; No predecessors!
  br label %179

179:                                              ; preds = %178
  br label %180

180:                                              ; preds = %179, %155, %111, %144, %133
  %181 = load ptr, ptr %18, align 8
  %182 = load ptr, ptr %19, align 8
  %183 = call ptr @bms_join(ptr noundef %181, ptr noundef %182)
  %184 = load ptr, ptr %6, align 8
  store ptr %183, ptr %184, align 8
  %185 = load ptr, ptr %17, align 8
  %186 = getelementptr inbounds nuw %struct.JoinExpr, ptr %185, i32 0, i32 9
  %187 = load i32, ptr %186, align 8
  %188 = icmp ne i32 %187, 0
  br i1 %188, label %189, label %197

189:                                              ; preds = %180
  %190 = load ptr, ptr %6, align 8
  %191 = load ptr, ptr %190, align 8
  %192 = load ptr, ptr %17, align 8
  %193 = getelementptr inbounds nuw %struct.JoinExpr, ptr %192, i32 0, i32 9
  %194 = load i32, ptr %193, align 8
  %195 = call ptr @bms_add_member(ptr noundef %191, i32 noundef %194)
  %196 = load ptr, ptr %6, align 8
  store ptr %195, ptr %196, align 8
  br label %197

197:                                              ; preds = %189, %180
  %198 = load ptr, ptr %20, align 8
  store ptr %198, ptr %5, align 8
  call void @llvm.lifetime.end.p0(i64 8, ptr %20) #8
  call void @llvm.lifetime.end.p0(i64 8, ptr %19) #8
  call void @llvm.lifetime.end.p0(i64 8, ptr %18) #8
  call void @llvm.lifetime.end.p0(i64 8, ptr %17) #8
  br label %212

199:                                              ; preds = %106
  br label %200

200:                                              ; preds = %199
  br i1 true, label %201, label %203

201:                                              ; preds = %200
  %202 = call zeroext i1 @errstart_cold(i32 noundef 21, ptr noundef null) #9
  br i1 %202, label %205, label %210

203:                                              ; preds = %200
  %204 = call zeroext i1 @errstart(i32 noundef 21, ptr noundef null)
  br i1 %204, label %205, label %210

205:                                              ; preds = %203, %201
  %206 = load ptr, ptr %5, align 8
  %207 = getelementptr inbounds nuw %struct.Node, ptr %206, i32 0, i32 0
  %208 = load i32, ptr %207, align 4
  %209 = call i32 (ptr, ...) @errmsg_internal(ptr noundef @.str.5, i32 noundef %208)
  call void @errfinish(ptr noundef @.str.2, i32 noundef 617, ptr noundef @__func__.pull_up_sublinks_jointree_recurse)
  br label %210

210:                                              ; preds = %205, %203, %201
  unreachable

211:                                              ; No predecessors!
  br label %212

212:                                              ; preds = %211, %197
  br label %213

213:                                              ; preds = %212, %91
  br label %214

214:                                              ; preds = %213, %30
  br label %215

215:                                              ; preds = %214, %23
  %216 = load ptr, ptr %5, align 8
  ret ptr %216
}