; Function Attrs: nounwind uwtable
define internal fastcc ptr @pull_up_sublinks_jointree_recurse(ptr noundef %0, ptr noundef readonly captures(address_is_null, ret: address, provenance) %1, ptr noundef nonnull writeonly captures(none) %2) unnamed_addr #0 {
  %4 = alloca ptr, align 8
  %5 = alloca ptr, align 8
  %6 = alloca ptr, align 8
  %7 = alloca ptr, align 8
  %8 = alloca ptr, align 8
  tail call void @check_stack_depth() #7
  %9 = icmp eq ptr %1, null
  br i1 %9, label %10, label %11

10:                                               ; preds = %3
  store ptr null, ptr %2, align 8
  br label %85

11:                                               ; preds = %3
  %12 = load i32, ptr %1, align 4
  switch i32 %12, label %81 [
    i32 63, label %13
    i32 65, label %17
    i32 64, label %40
  ]

13:                                               ; preds = %11
  %14 = getelementptr inbounds nuw i8, ptr %1, i64 4
  %15 = load i32, ptr %14, align 4
  %16 = tail call ptr @bms_make_singleton(i32 noundef %15) #7
  store ptr %16, ptr %2, align 8
  br label %85

17:                                               ; preds = %11
  call void @llvm.lifetime.start.p0(i64 8, ptr nonnull %4) #7
  %18 = getelementptr inbounds nuw i8, ptr %1, i64 8
  %19 = load ptr, ptr %18, align 8
  %20 = getelementptr inbounds nuw i8, ptr %19, i64 4
  %.not62 = icmp eq ptr %19, null
  br i1 %.not62, label %._crit_edge, label %.lr.ph

.lr.ph:                                           ; preds = %17
  %21 = getelementptr inbounds nuw i8, ptr %19, i64 16
  %22 = load i32, ptr %20, align 4
  %23 = icmp sgt i32 %22, 0
  br i1 %23, label %.lr.ph79, label %._crit_edge

._crit_edge:                                      ; preds = %.lr.ph79, %.lr.ph, %17
  %.056.lcssa = phi ptr [ null, %17 ], [ null, %.lr.ph ], [ %36, %.lr.ph79 ]
  %.055.lcssa = phi ptr [ null, %17 ], [ null, %.lr.ph ], [ %34, %.lr.ph79 ]
  %24 = tail call ptr @makeFromExpr(ptr noundef %.055.lcssa, ptr noundef null) #7
  store ptr %24, ptr %4, align 8
  %25 = getelementptr inbounds nuw i8, ptr %1, i64 16
  %26 = load ptr, ptr %25, align 8
  %27 = call fastcc ptr @pull_up_sublinks_qual_recurse(ptr noundef %0, ptr noundef %26, ptr noundef nonnull %4, ptr noundef %.056.lcssa, ptr noundef null, ptr noundef null)
  %28 = getelementptr inbounds nuw i8, ptr %24, i64 16
  store ptr %27, ptr %28, align 8
  store ptr %.056.lcssa, ptr %2, align 8
  %29 = load ptr, ptr %4, align 8
  call void @llvm.lifetime.end.p0(i64 8, ptr nonnull %4) #7
  br label %85

.lr.ph79:                                         ; preds = %.lr.ph, %.lr.ph79
  %indvars.iv = phi i64 [ %indvars.iv.next, %.lr.ph79 ], [ 0, %.lr.ph ]
  %.0566777 = phi ptr [ %36, %.lr.ph79 ], [ null, %.lr.ph ]
  %.0556876 = phi ptr [ %34, %.lr.ph79 ], [ null, %.lr.ph ]
  %30 = load ptr, ptr %21, align 8
  %31 = getelementptr inbounds nuw %union.ListCell, ptr %30, i64 %indvars.iv
  call void @llvm.lifetime.start.p0(i64 8, ptr nonnull %5) #7
  %32 = load ptr, ptr %31, align 8
  %33 = call fastcc ptr @pull_up_sublinks_jointree_recurse(ptr noundef %0, ptr noundef %32, ptr noundef %5)
  %34 = tail call ptr @lappend(ptr noundef %.0556876, ptr noundef %33) #7
  %35 = load ptr, ptr %5, align 8
  %36 = tail call ptr @bms_join(ptr noundef %.0566777, ptr noundef %35) #7
  call void @llvm.lifetime.end.p0(i64 8, ptr nonnull %5) #7
  %indvars.iv.next = add nuw nsw i64 %indvars.iv, 1
  %37 = load i32, ptr %20, align 4
  %38 = sext i32 %37 to i64
  %39 = icmp slt i64 %indvars.iv.next, %38
  br i1 %39, label %.lr.ph79, label %._crit_edge

40:                                               ; preds = %11
  call void @llvm.lifetime.start.p0(i64 8, ptr nonnull %6) #7
  call void @llvm.lifetime.start.p0(i64 8, ptr nonnull %7) #7
  call void @llvm.lifetime.start.p0(i64 8, ptr nonnull %8) #7
  %41 = tail call ptr @palloc(i64 noundef 72) #7
  tail call void @llvm.memcpy.p0.p0.i64(ptr noundef nonnull align 8 dereferenceable(72) %41, ptr noundef nonnull align 4 dereferenceable(72) %1, i64 72, i1 false)
  store ptr %41, ptr %8, align 8
  %42 = getelementptr inbounds nuw i8, ptr %41, i64 16
  %43 = load ptr, ptr %42, align 8
  %44 = call fastcc ptr @pull_up_sublinks_jointree_recurse(ptr noundef %0, ptr noundef %43, ptr noundef %6)
  store ptr %44, ptr %42, align 8
  %45 = getelementptr inbounds nuw i8, ptr %41, i64 24
  %46 = load ptr, ptr %45, align 8
  %47 = call fastcc ptr @pull_up_sublinks_jointree_recurse(ptr noundef %0, ptr noundef %46, ptr noundef %7)
  store ptr %47, ptr %45, align 8
  %48 = getelementptr inbounds nuw i8, ptr %41, i64 4
  %49 = load i32, ptr %48, align 4
  switch i32 %49, label %67 [
    i32 0, label %50
    i32 1, label %57
    i32 2, label %71
    i32 3, label %62
  ]

50:                                               ; preds = %40
  %51 = getelementptr inbounds nuw i8, ptr %41, i64 48
  %52 = load ptr, ptr %51, align 8
  %53 = load ptr, ptr %6, align 8
  %54 = load ptr, ptr %7, align 8
  %55 = tail call ptr @bms_union(ptr noundef %53, ptr noundef %54) #7
  %56 = call fastcc ptr @pull_up_sublinks_qual_recurse(ptr noundef %0, ptr noundef %52, ptr noundef nonnull %8, ptr noundef %55, ptr noundef null, ptr noundef null)
  store ptr %56, ptr %51, align 8
  br label %71

57:                                               ; preds = %40
  %58 = getelementptr inbounds nuw i8, ptr %41, i64 48
  %59 = load ptr, ptr %58, align 8
  %60 = load ptr, ptr %7, align 8
  %61 = tail call fastcc ptr @pull_up_sublinks_qual_recurse(ptr noundef %0, ptr noundef %59, ptr noundef nonnull %45, ptr noundef %60, ptr noundef null, ptr noundef null)
  store ptr %61, ptr %58, align 8
  br label %71

62:                                               ; preds = %40
  %63 = getelementptr inbounds nuw i8, ptr %41, i64 48
  %64 = load ptr, ptr %63, align 8
  %65 = load ptr, ptr %6, align 8
  %66 = tail call fastcc ptr @pull_up_sublinks_qual_recurse(ptr noundef %0, ptr noundef %64, ptr noundef nonnull %42, ptr noundef %65, ptr noundef null, ptr noundef null)
  store ptr %66, ptr %63, align 8
  br label %71

67:                                               ; preds = %40
  %68 = tail call zeroext i1 @errstart_cold(i32 noundef 21, ptr noundef null) #8
  tail call void @llvm.assume(i1 %68)
  %69 = load i32, ptr %48, align 4
  %70 = tail call i32 (ptr, ...) @errmsg_internal(ptr noundef nonnull @.str.7, i32 noundef %69) #7
  tail call void @errfinish(ptr noundef nonnull @.str.2, i32 noundef 598, ptr noundef nonnull @__func__.pull_up_sublinks_jointree_recurse) #7
  unreachable

71:                                               ; preds = %62, %57, %50, %40
  %72 = load ptr, ptr %6, align 8
  %73 = load ptr, ptr %7, align 8
  %74 = tail call ptr @bms_join(ptr noundef %72, ptr noundef %73) #7
  store ptr %74, ptr %2, align 8
  %75 = getelementptr inbounds nuw i8, ptr %41, i64 64
  %76 = load i32, ptr %75, align 8
  %.not = icmp eq i32 %76, 0
  br i1 %.not, label %79, label %77

77:                                               ; preds = %71
  %78 = tail call ptr @bms_add_member(ptr noundef %74, i32 noundef %76) #7
  store ptr %78, ptr %2, align 8
  br label %79

79:                                               ; preds = %77, %71
  %80 = load ptr, ptr %8, align 8
  call void @llvm.lifetime.end.p0(i64 8, ptr nonnull %8) #7
  call void @llvm.lifetime.end.p0(i64 8, ptr nonnull %7) #7
  call void @llvm.lifetime.end.p0(i64 8, ptr nonnull %6) #7
  br label %85

81:                                               ; preds = %11
  %82 = tail call zeroext i1 @errstart_cold(i32 noundef 21, ptr noundef null) #8
  tail call void @llvm.assume(i1 %82)
  %83 = load i32, ptr %1, align 4
  %84 = tail call i32 (ptr, ...) @errmsg_internal(ptr noundef nonnull @.str.5, i32 noundef %83) #7
  tail call void @errfinish(ptr noundef nonnull @.str.2, i32 noundef 617, ptr noundef nonnull @__func__.pull_up_sublinks_jointree_recurse) #7
  unreachable

85:                                               ; preds = %13, %79, %._crit_edge, %10
  %.0 = phi ptr [ null, %10 ], [ %1, %13 ], [ %29, %._crit_edge ], [ %80, %79 ]
  ret ptr %.0
}